target datalayout = "e-m:e-p270:32:32-p271:32:32-p272:64:64-i64:64-i128:128-f80:128-n8:16:32:64-S128"
target triple = "x86_64-pc-linux-gnu"

%"struct.faiss::IndexFlatCodes" = type { %"struct.faiss::Index.base", i64, %"class.std::vector" }
%"struct.faiss::Index.base" = type <{ ptr, i32, [4 x i8], i64, i8, i8, [2 x i8], i32, float }>
%"class.std::vector" = type { %"struct.std::_Vector_base" }
%"struct.std::_Vector_base" = type { %"struct.std::_Vector_base<unsigned char, std::allocator<unsigned char>>::_Vector_impl" }
%"struct.std::_Vector_base<unsigned char, std::allocator<unsigned char>>::_Vector_impl" = type { %"struct.std::_Vector_base<unsigned char, std::allocator<unsigned char>>::_Vector_impl_data" }
%"struct.std::_Vector_base<unsigned char, std::allocator<unsigned char>>::_Vector_impl_data" = type { ptr, ptr, ptr }
%"struct.faiss::Index" = type <{ ptr, i32, [4 x i8], i64, i8, i8, [2 x i8], i32, float, [4 x i8] }>

; Function Attrs: mustprogress nounwind uwtable
define linkonce_odr noundef nonnull align 1 dereferenceable(1) ptr @_ZNSt6vectorIhSaIhEEixEm(ptr noundef nonnull align 8 dereferenceable(24) %0, i64 noundef %1) #0 comdat align 2 {
  %3 = alloca ptr, align 8
  %4 = alloca i64, align 8
  store ptr %0, ptr %3, align 8
  store i64 %1, ptr %4, align 8
  %5 = load ptr, ptr %3, align 8
  %6 = getelementptr inbounds %"struct.std::_Vector_base", ptr %5, i32 0, i32 0
  %7 = getelementptr inbounds %"struct.std::_Vector_base<unsigned char, std::allocator<unsigned char>>::_Vector_impl_data", ptr %6, i32 0, i32 0
  %8 = load ptr, ptr %7, align 8
  %9 = load i64, ptr %4, align 8
  %10 = getelementptr inbounds i8, ptr %8, i64 %9
  ret ptr %10
}

; Function Attrs: mustprogress uwtable
define noundef i64 @_ZN5faiss14IndexFlatCodes10remove_idsERKNS_10IDSelectorE(ptr noundef nonnull align 8 dereferenceable(72) %0, ptr noundef nonnull align 8 dereferenceable(8) %1) unnamed_addr #2 align 2 {
  %3 = alloca ptr, align 8
  %4 = alloca ptr, align 8
  %5 = alloca i64, align 8
  %6 = alloca i64, align 8
  %7 = alloca i64, align 8
  store ptr %0, ptr %3, align 8
  store ptr %1, ptr %4, align 8
  %8 = load ptr, ptr %3, align 8
  store i64 0, ptr %5, align 8
  store i64 0, ptr %6, align 8
  br label %9

9:                                                ; preds = %45, %2
  %10 = load i64, ptr %6, align 8
  %11 = getelementptr inbounds %"struct.faiss::Index", ptr %8, i32 0, i32 3
  %12 = load i64, ptr %11, align 8
  %13 = icmp slt i64 %10, %12
  br i1 %13, label %14, label %48

14:                                               ; preds = %9
  %15 = load ptr, ptr %4, align 8
  %16 = load i64, ptr %6, align 8
  %17 = load ptr, ptr %15, align 8
  %18 = getelementptr inbounds ptr, ptr %17, i64 0
  %19 = load ptr, ptr %18, align 8
  %20 = call noundef zeroext i1 %19(ptr noundef nonnull align 8 dereferenceable(8) %15, i64 noundef %16)
  br i1 %20, label %21, label %22

21:                                               ; preds = %14
  br label %44

22:                                               ; preds = %14
  %23 = load i64, ptr %6, align 8
  %24 = load i64, ptr %5, align 8
  %25 = icmp sgt i64 %23, %24
  br i1 %25, label %26, label %41

26:                                               ; preds = %22
  %27 = getelementptr inbounds %"struct.faiss::IndexFlatCodes", ptr %8, i32 0, i32 2
  %28 = getelementptr inbounds %"struct.faiss::IndexFlatCodes", ptr %8, i32 0, i32 1
  %29 = load i64, ptr %28, align 8
  %30 = load i64, ptr %5, align 8
  %31 = mul i64 %29, %30
  %32 = call noundef nonnull align 1 dereferenceable(1) ptr @_ZNSt6vectorIhSaIhEEixEm(ptr noundef nonnull align 8 dereferenceable(24) %27, i64 noundef %31) #12
  %33 = getelementptr inbounds %"struct.faiss::IndexFlatCodes", ptr %8, i32 0, i32 2
  %34 = getelementptr inbounds %"struct.faiss::IndexFlatCodes", ptr %8, i32 0, i32 1
  %35 = load i64, ptr %34, align 8
  %36 = load i64, ptr %6, align 8
  %37 = mul i64 %35, %36
  %38 = call noundef nonnull align 1 dereferenceable(1) ptr @_ZNSt6vectorIhSaIhEEixEm(ptr noundef nonnull align 8 dereferenceable(24) %33, i64 noundef %37) #12
  %39 = getelementptr inbounds %"struct.faiss::IndexFlatCodes", ptr %8, i32 0, i32 1
  %40 = load i64, ptr %39, align 8
  call void @llvm.memmove.p0.p0.i64(ptr align 1 %32, ptr align 1 %38, i64 %40, i1 false)
  br label %41

41:                                               ; preds = %26, %22
  %42 = load i64, ptr %5, align 8
  %43 = add nsw i64 %42, 1
  store i64 %43, ptr %5, align 8
  br label %44

44:                                               ; preds = %41, %21
  br label %45

45:                                               ; preds = %44
  %46 = load i64, ptr %6, align 8
  %47 = add nsw i64 %46, 1
  store i64 %47, ptr %6, align 8
  br label %9, !llvm.loop !5

48:                                               ; preds = %9
  %49 = getelementptr inbounds %"struct.faiss::Index", ptr %8, i32 0, i32 3
  %50 = load i64, ptr %49, align 8
  %51 = load i64, ptr %5, align 8
  %52 = sub nsw i64 %50, %51
  store i64 %52, ptr %7, align 8
  %53 = load i64, ptr %7, align 8
  %54 = icmp ugt i64 %53, 0
  br i1 %54, label %55, label %64

55:                                               ; preds = %48
  %56 = load i64, ptr %5, align 8
  %57 = getelementptr inbounds %"struct.faiss::Index", ptr %8, i32 0, i32 3
  store i64 %56, ptr %57, align 8
  %58 = getelementptr inbounds %"struct.faiss::IndexFlatCodes", ptr %8, i32 0, i32 2
  %59 = getelementptr inbounds %"struct.faiss::Index", ptr %8, i32 0, i32 3
  %60 = load i64, ptr %59, align 8
  %61 = getelementptr inbounds %"struct.faiss::IndexFlatCodes", ptr %8, i32 0, i32 1
  %62 = load i64, ptr %61, align 8
  %63 = mul i64 %60, %62
  call void @_ZNSt6vectorIhSaIhEE6resizeEm(ptr noundef nonnull align 8 dereferenceable(24) %58, i64 noundef %63)
  br label %64

64:                                               ; preds = %55, %48
  %65 = load i64, ptr %7, align 8
  ret i64 %65
}